#include <math.h>
#include <stdio.h>
#include <stdlib.h>
#include <string.h>

int main(){
	char x[2],word[32];
	int i,j,k,len,n;
	gets(x);
	n=atoi(x);
	for (i=0;i<n;i++){
		gets(word);
		len=strlen(word);
		if(word[len-1]=='g'){
			for(j=0;j<len-3;j++)
				printf("%c",word[j]);
			printf("\n");
		}
		else {
			for (k=0;k<len-2;k++)
				printf("%c",word[k]);
			printf("\n");
		}
	}
	return 0;
}